; Function Attrs: mustprogress nofree norecurse nosync nounwind willreturn memory(write, argmem: readwrite) uwtable
define internal noundef nonnull ptr @_ZN6evmone8advanced12_GLOBAL__N_12opIXadL_ZNS0_5instr4implILNS_6OpcodeE61EXadL_ZNS_5instr4core14returndatasizeENS_8StackTopERNS_14ExecutionStateEEEEEvRNS0_22AdvancedExecutionStateEEEEEPKNS0_11InstructionESF_SC_(ptr noundef readnone captures(ret: address, provenance) %0, ptr noundef nonnull align 8 captures(none) dereferenceable(564) %1) #6 {
  %3 = getelementptr inbounds nuw i8, ptr %1, i64 552
  %.sroa.0.0.copyload.i = load ptr, ptr %3, align 8, !tbaa !57
  %4 = getelementptr inbounds nuw i8, ptr %1, i64 80
  %5 = load i64, ptr %4, align 8, !tbaa !219
  store i64 %5, ptr %.sroa.0.0.copyload.i, align 8
  %.sroa.4.0..sroa_idx.i.i = getelementptr inbounds nuw i8, ptr %.sroa.0.0.copyload.i, i64 8
  tail call void @llvm.memset.p0.i64(ptr noundef nonnull align 8 dereferenceable(24) %.sroa.4.0..sroa_idx.i.i, i8 0, i64 24, i1 false)
  %6 = load ptr, ptr %3, align 8, !tbaa !67
  %7 = getelementptr inbounds nuw i8, ptr %6, i64 32
  call void @llvm.assume(i1 true) [ "align"(ptr %7, i64 32) ]
  %8 = ptrtoint ptr %7 to i64
  store i64 %8, ptr %3, align 8, !tbaa !57
  %9 = getelementptr inbounds nuw i8, ptr %0, i64 16
  ret ptr %9
}